Certificate:
    Data:
        Version: 3 (0x2)
        Serial Number: 2 (0x2)
        Signature Algorithm: sha1WithRSAEncryption
        Issuer: C=NA, ST=NA, L=NA, O=NA, OU=NA, CN=NA/name=NA/emailAddress=NA
        Validity
            Not Before: Mar  7 22:44:49 2013 GMT
            Not After : Mar  5 22:44:49 2023 GMT
        Subject: C=US, ST=CA, L=SanFrancisco, O=Fort-Funston, OU=changeme, CN=changeme/name=changeme/emailAddress=mail@host.domain
        Subject Public Key Info:
            Public Key Algorithm: rsaEncryption
                Public-Key: (1024 bit)
                Modulus:
                    00:bc:7a:74:37:00:fe:66:cb:d2:a4:f2:4f:eb:20:
                    ee:79:3e:f5:7f:e3:d5:20:97:a8:73:69:5c:64:07:
                    55:fa:3c:67:a9:ed:86:1b:d3:d7:a0:48:da:b3:53:
                    c2:5a:a0:3f:bb:18:b9:5f:cf:bf:93:f1:c1:a2:a7:
                    f5:7f:ce:53:48:17:76:8e:ec:39:26:b0:9b:35:54:
                    45:fb:83:0c:79:fb:2a:a8:6f:d1:61:ee:e6:73:a1:
                    a9:96:85:55:ba:17:3d:8e:8f:23:bc:52:83:d0:c1:
                    21:59:7b:1f:3c:80:20:35:5b:d2:de:d8:62:1b:67:
                    93:54:8b:2c:80:73:ef:1a:79
                Exponent: 65537 (0x10001)
        X509v3 extensions:
            X509v3 Basic Constraints: 
                CA:FALSE
            Netscape Comment: 
                Easy-RSA Generated Certificate
            X509v3 Subject Key Identifier: 
                5A:91:65:F2:8D:69:8E:BF:B2:DA:6F:2C:B8:92:7E:82:00:71:2F:5C
            X509v3 Authority Key Identifier: 
                keyid:8E:FE:CB:EA:E4:FE:8E:DE:35:95:F2:BF:02:82:C9:E5:87:D2:16:12
                DirName:/C=NA/ST=NA/L=NA/O=NA/OU=NA/CN=NA/name=NA/emailAddress=NA
                serial:D5:A0:93:FA:24:35:4D:95

            X509v3 Extended Key Usage: 
                TLS Web Client Authentication
            X509v3 Key Usage: 
                Digital Signature
    Signature Algorithm: sha1WithRSAEncryption
        97:69:f5:48:87:65:5c:96:3a:ab:c0:87:d6:91:07:fb:bd:26:
        3f:c0:57:12:bb:23:84:2a:24:ab:1f:de:8e:a0:2b:5f:a9:91:
        29:e3:41:92:f8:f5:0c:12:04:71:3c:73:f6:48:14:88:6c:bc:
        b6:82:3b:1b:64:c5:e8:8a:cb:2d:69:9f:a2:01:30:d8:47:63:
        4a:c7:46:73:7f:da:b8:b0:e4:cc:79:7a:c1:d5:b2:fd:90:f6:
        25:af:aa:b2:e9:ac:2c:55:ee:c5:7b:70:20:b6:d7:ca:5c:25:
        ba:b1:d0:6a:44:86:06:83:d1:f2:50:05:36:fd:66:b6:34:a2:
        27:86
-----BEGIN CERTIFICATE-----
MIIDqzCCAxSgAwIBAgIBAjANBgkqhkiG9w0BAQUFADBuMQswCQYDVQQGEwJOQTEL
MAkGA1UECBMCTkExCzAJBgNVBAcTAk5BMQswCQYDVQQKEwJOQTELMAkGA1UECxMC
TkExCzAJBgNVBAMTAk5BMQswCQYDVQQpEwJOQTERMA8GCSqGSIb3DQEJARYCTkEw
HhcNMTMwMzA3MjI0NDQ5WhcNMjMwMzA1MjI0NDQ5WjCBojELMAkGA1UEBhMCVVMx
CzAJBgNVBAgTAkNBMRUwEwYDVQQHEwxTYW5GcmFuY2lzY28xFTATBgNVBAoTDEZv
cnQtRnVuc3RvbjERMA8GA1UECxMIY2hhbmdlbWUxETAPBgNVBAMTCGNoYW5nZW1l
MREwDwYDVQQpEwhjaGFuZ2VtZTEfMB0GCSqGSIb3DQEJARYQbWFpbEBob3N0LmRv
bWFpbjCBnzANBgkqhkiG9w0BAQEFAAOBjQAwgYkCgYEAvHp0NwD+ZsvSpPJP6yDu
eT71f+PVIJeoc2lcZAdV+jxnqe2GG9PXoEjas1PCWqA/uxi5X8+/k/HBoqf1f85T
SBd2juw5JrCbNVRF+4MMefsqqG/RYe7mc6GploVVuhc9jo8jvFKD0MEhWXsfPIAg
NVvS3thiG2eTVIssgHPvGnkCAwEAAaOCASIwggEeMAkGA1UdEwQCMAAwLQYJYIZI
AYb4QgENBCAWHkVhc3ktUlNBIEdlbmVyYXRlZCBDZXJ0aWZpY2F0ZTAdBgNVHQ4E
FgQUWpFl8o1pjr+y2m8suJJ+ggBxL1wwgaAGA1UdIwSBmDCBlYAUjv7L6uT+jt41
lfK/AoLJ5YfSFhKhcqRwMG4xCzAJBgNVBAYTAk5BMQswCQYDVQQIEwJOQTELMAkG
A1UEBxMCTkExCzAJBgNVBAoTAk5BMQswCQYDVQQLEwJOQTELMAkGA1UEAxMCTkEx
CzAJBgNVBCkTAk5BMREwDwYJKoZIhvcNAQkBFgJOQYIJANWgk/okNU2VMBMGA1Ud
JQQMMAoGCCsGAQUFBwMCMAsGA1UdDwQEAwIHgDANBgkqhkiG9w0BAQUFAAOBgQCX
afVIh2VcljqrwIfWkQf7vSY/wFcSuyOEKiSrH96OoCtfqZEp40GS+PUMEgRxPHP2
SBSIbLy2gjsbZMXoisstaZ+iATDYR2NKx0Zzf9q4sOTMeXrB1bL9kPYlr6qy6aws
Ve7Fe3AgttfKXCW6sdBqRIYGg9HyUAU2/Wa2NKInhg==
-----END CERTIFICATE-----
